; Function Attrs: mustprogress uwtable
define hidden noundef zeroext i1 @_ZN3smt10theory_seq8canonizeEP4exprRPN18dependency_managerIN25scoped_dependency_managerINS0_10assumptionEE6configEE10dependencyER7obj_refIS1_11ast_managerE(ptr noundef nonnull align 8 dereferenceable(4328) %this, ptr noundef %e, ptr nocapture noundef nonnull align 8 dereferenceable(8) %eqs, ptr noundef nonnull align 8 dereferenceable(16) %result) local_unnamed_addr #3 align 2 {
entry:
  %call = tail call noundef zeroext i1 @_ZN3smt10theory_seq6expandEP4exprRPN18dependency_managerIN25scoped_dependency_managerINS0_10assumptionEE6configEE10dependencyER7obj_refIS1_11ast_managerE(ptr noundef nonnull align 8 dereferenceable(4328) %this, ptr noundef %e, ptr noundef nonnull align 8 dereferenceable(8) %eqs, ptr noundef nonnull align 8 dereferenceable(16) %result)
  br i1 %call, label %if.end, label %return

if.end:                                           ; preds = %entry
  %m_rewrite = getelementptr inbounds i8, ptr %this, i64 1192
  tail call void @_ZN11th_rewriterclER7obj_refI4expr11ast_managerE(ptr noundef nonnull align 8 dereferenceable(16) %m_rewrite, ptr noundef nonnull align 8 dereferenceable(16) %result)
  br label %return

return:                                           ; preds = %entry, %if.end
  ret i1 %call
}